target datalayout = "e-m:e-p270:32:32-p271:32:32-p272:64:64-i64:64-i128:128-f80:128-n8:16:32:64-S128"
target triple = "x86_64-pc-linux-gnu"

%struct.expert_field = type { i32, i32 }
%struct.true_false_string = type { ptr, ptr }
%struct._asn1_ctx_t = type { i32, i32, i8, ptr, ptr, ptr, ptr, ptr, %struct.anon, %struct.anon.2, %struct.anon.3, ptr }
%struct.anon = type { i32, i8, i8, i8, ptr, ptr, i32, i32, ptr, ptr, ptr, %union.anon }
%union.anon = type { %struct.anon.0 }
%struct.anon.0 = type { ptr }
%struct.anon.2 = type { ptr, ptr, ptr }
%struct.anon.3 = type { i32, i8, ptr, i32, i32, ptr, ptr, ptr, %union.anon.4 }
%union.anon.4 = type { %struct.anon.5 }
%struct.anon.5 = type { ptr }
%struct._packet_info = type { ptr, ptr, i32, i32, %struct.nstime_t, %struct.nstime_t, %struct.nstime_t, i8, ptr, ptr, ptr, ptr, %struct._address, %struct._address, %struct._address, %struct._address, %struct._address, %struct._address, i32, ptr, i8, [3 x i8], %struct.anon.7, i32, i32, i32, i32, ptr, i8, ptr, ptr, i16, i16, i32, i32, i16, i32, i32, ptr, ptr, ptr, i8, i8, i16, i16, i16, i32, i16, i16, ptr, ptr, ptr, ptr, ptr, i32, i32 }
%struct.nstime_t = type { i64, i32 }
%struct._address = type { i32, i32, ptr, ptr }
%struct.anon.7 = type { i8, [3 x i8] }

@.str.3 = private unnamed_addr constant [8 x i8] c"Unknown\00", align 1
@decode_unexpected = internal global i8 0, align 1
@ett_ber_unknown = internal global i32 0, align 4
@tfs_constructed_primitive = external constant %struct.true_false_string, align 8
@ei_ber_error_length = internal global %struct.expert_field zeroinitializer, align 4
@ei_ber_expected_generalized_time = internal global %struct.expert_field zeroinitializer, align 4
@.str.27 = private unnamed_addr constant [78 x i8] c"BER Error: GeneralizedTime expected but class:%s(%d) %s tag:%d was unexpected\00", align 1
@.str.28 = private unnamed_addr constant [46 x i8] c"BER Error: GeneralizedTime invalid length: %u\00", align 1
@ei_ber_invalid_format_generalized_time = internal global %struct.expert_field zeroinitializer, align 4
@.str.29 = private unnamed_addr constant [46 x i8] c"BER Error: GeneralizedTime invalid format: %s\00", align 1

; Function Attrs: null_pointer_is_valid sspstrong uwtable
define i32 @dissect_unknown_ber(ptr noundef %0, ptr noundef %1, i32 noundef %2, ptr noundef %3) #0 {
  %5 = alloca ptr, align 8
  %6 = alloca ptr, align 8
  %7 = alloca i32, align 4
  %8 = alloca ptr, align 8
  store ptr %0, ptr %5, align 8
  store ptr %1, ptr %6, align 8
  store i32 %2, ptr %7, align 4
  store ptr %3, ptr %8, align 8
  %9 = load ptr, ptr %5, align 8
  %10 = load ptr, ptr %6, align 8
  %11 = load i32, ptr %7, align 4
  %12 = load ptr, ptr %8, align 8
  %13 = call i32 @try_dissect_unknown_ber(ptr noundef %9, ptr noundef %10, i32 noundef %11, ptr noundef %12, i32 noundef 1)
  ret i32 %13
}

; Function Attrs: null_pointer_is_valid sspstrong uwtable
define i32 @dissect_ber_GeneralizedTime(i1 noundef zeroext %0, ptr noundef %1, ptr noundef %2, ptr noundef %3, i32 noundef %4, i32 noundef %5) #0 {
  %7 = alloca i32, align 4
  %8 = alloca i8, align 1
  %9 = alloca ptr, align 8
  %10 = alloca ptr, align 8
  %11 = alloca ptr, align 8
  %12 = alloca i32, align 4
  %13 = alloca i32, align 4
  %14 = alloca %struct.nstime_t, align 8
  %15 = alloca ptr, align 8
  %16 = alloca i8, align 1
  %17 = alloca i8, align 1
  %18 = alloca i32, align 4
  %19 = alloca i32, align 4
  %20 = alloca i32, align 4
  %21 = alloca i32, align 4
  %22 = alloca i32, align 4
  %23 = alloca i32, align 4
  %24 = alloca i32, align 4
  %25 = alloca i32, align 4
  %26 = alloca ptr, align 8
  %27 = alloca ptr, align 8
  %28 = alloca i32, align 4
  %29 = alloca ptr, align 8
  %30 = alloca ptr, align 8
  %31 = zext i1 %0 to i8
  store i8 %31, ptr %8, align 1
  store ptr %1, ptr %9, align 8
  store ptr %2, ptr %10, align 8
  store ptr %3, ptr %11, align 8
  store i32 %4, ptr %12, align 4
  store i32 %5, ptr %13, align 4
  call void @llvm.lifetime.start.p0(i64 16, ptr %14) #12
  call void @llvm.lifetime.start.p0(i64 8, ptr %15) #12
  call void @llvm.lifetime.start.p0(i64 1, ptr %16) #12
  call void @llvm.lifetime.start.p0(i64 1, ptr %17) #12
  call void @llvm.lifetime.start.p0(i64 4, ptr %18) #12
  call void @llvm.lifetime.start.p0(i64 4, ptr %19) #12
  call void @llvm.lifetime.start.p0(i64 4, ptr %20) #12
  call void @llvm.lifetime.start.p0(i64 4, ptr %21) #12
  call void @llvm.lifetime.start.p0(i64 4, ptr %22) #12
  call void @llvm.lifetime.start.p0(i64 4, ptr %23) #12
  call void @llvm.lifetime.start.p0(i64 4, ptr %24) #12
  call void @llvm.lifetime.start.p0(i64 4, ptr %25) #12
  call void @llvm.lifetime.start.p0(i64 8, ptr %26) #12
  %32 = load i8, ptr %8, align 1, !range !6, !noundef !7
  %33 = trunc i8 %32 to i1
  br i1 %33, label %103, label %34

34:                                               ; preds = %6
  %35 = load i32, ptr %12, align 4
  store i32 %35, ptr %25, align 4
  %36 = load i32, ptr %12, align 4
  store i32 %36, ptr %19, align 4
  %37 = load ptr, ptr %9, align 8
  %38 = getelementptr inbounds nuw %struct._asn1_ctx_t, ptr %37, i32 0, i32 3
  %39 = load ptr, ptr %38, align 8
  %40 = load ptr, ptr %10, align 8
  %41 = load ptr, ptr %11, align 8
  %42 = load i32, ptr %12, align 4
  %43 = call i32 @dissect_ber_identifier(ptr noundef %39, ptr noundef %40, ptr noundef %41, i32 noundef %42, ptr noundef %16, ptr noundef %17, ptr noundef %18)
  store i32 %43, ptr %12, align 4
  %44 = load i32, ptr %12, align 4
  %45 = load i32, ptr %19, align 4
  %46 = sub i32 %44, %45
  store i32 %46, ptr %20, align 4
  %47 = load i32, ptr %12, align 4
  store i32 %47, ptr %22, align 4
  %48 = load ptr, ptr %9, align 8
  %49 = getelementptr inbounds nuw %struct._asn1_ctx_t, ptr %48, i32 0, i32 3
  %50 = load ptr, ptr %49, align 8
  %51 = load ptr, ptr %10, align 8
  %52 = load ptr, ptr %11, align 8
  %53 = load i32, ptr %12, align 4
  %54 = call i32 @dissect_ber_length(ptr noundef %50, ptr noundef %51, ptr noundef %52, i32 noundef %53, ptr noundef %21, ptr noundef null)
  store i32 %54, ptr %12, align 4
  %55 = load i32, ptr %12, align 4
  %56 = load i32, ptr %22, align 4
  %57 = sub i32 %55, %56
  store i32 %57, ptr %23, align 4
  %58 = load i32, ptr %12, align 4
  %59 = load i32, ptr %21, align 4
  %60 = add i32 %58, %59
  store i32 %60, ptr %24, align 4
  %61 = load i8, ptr %16, align 1
  %62 = sext i8 %61 to i32
  %63 = icmp ne i32 %62, 0
  br i1 %63, label %67, label %64

64:                                               ; preds = %34
  %65 = load i32, ptr %18, align 4
  %66 = icmp ne i32 %65, 24
  br i1 %66, label %67, label %102

67:                                               ; preds = %64, %34
  %68 = load ptr, ptr %11, align 8
  %69 = load i32, ptr %25, align 4
  call void @tvb_ensure_bytes_exist(ptr noundef %68, i32 noundef %69, i32 noundef 2)
  %70 = load ptr, ptr %10, align 8
  %71 = load ptr, ptr %9, align 8
  %72 = getelementptr inbounds nuw %struct._asn1_ctx_t, ptr %71, i32 0, i32 3
  %73 = load ptr, ptr %72, align 8
  %74 = load ptr, ptr %11, align 8
  %75 = load i32, ptr %19, align 4
  %76 = load i32, ptr %20, align 4
  %77 = load i8, ptr %16, align 1
  %78 = sext i8 %77 to i32
  %79 = call ptr @val_to_str_const(i32 noundef %78, ptr noundef @ber_class_codes, ptr noundef @.str.3)
  %80 = load i8, ptr %16, align 1
  %81 = sext i8 %80 to i32
  %82 = load i8, ptr %17, align 1, !range !6, !noundef !7
  %83 = trunc i8 %82 to i1
  %84 = call ptr @tfs_get_string(i1 noundef zeroext %83, ptr noundef @tfs_constructed_primitive)
  %85 = load i32, ptr %18, align 4
  %86 = call ptr (ptr, ptr, ptr, ptr, i32, i32, ptr, ...) @proto_tree_add_expert_format(ptr noundef %70, ptr noundef %73, ptr noundef @ei_ber_expected_generalized_time, ptr noundef %74, i32 noundef %75, i32 noundef %76, ptr noundef @.str.27, ptr noundef %79, i32 noundef %81, ptr noundef %84, i32 noundef %85)
  store ptr %86, ptr %26, align 8
  %87 = load i8, ptr @decode_unexpected, align 1, !range !6, !noundef !7
  %88 = trunc i8 %87 to i1
  br i1 %88, label %89, label %100

89:                                               ; preds = %67
  call void @llvm.lifetime.start.p0(i64 8, ptr %27) #12
  %90 = load ptr, ptr %26, align 8
  %91 = load i32, ptr @ett_ber_unknown, align 4
  %92 = call ptr @proto_item_add_subtree(ptr noundef %90, i32 noundef %91)
  store ptr %92, ptr %27, align 8
  %93 = load ptr, ptr %9, align 8
  %94 = getelementptr inbounds nuw %struct._asn1_ctx_t, ptr %93, i32 0, i32 3
  %95 = load ptr, ptr %94, align 8
  %96 = load ptr, ptr %11, align 8
  %97 = load i32, ptr %25, align 4
  %98 = load ptr, ptr %27, align 8
  %99 = call i32 @dissect_unknown_ber(ptr noundef %95, ptr noundef %96, i32 noundef %97, ptr noundef %98)
  call void @llvm.lifetime.end.p0(i64 8, ptr %27) #12
  br label %100

100:                                              ; preds = %89, %67
  %101 = load i32, ptr %24, align 4
  store i32 %101, ptr %7, align 4
  store i32 1, ptr %28, align 4
  br label %194

102:                                              ; preds = %64
  br label %110

103:                                              ; preds = %6
  %104 = load ptr, ptr %11, align 8
  %105 = load i32, ptr %12, align 4
  %106 = call i32 @tvb_reported_length_remaining(ptr noundef %104, i32 noundef %105)
  store i32 %106, ptr %21, align 4
  store i32 0, ptr %22, align 4
  store i32 0, ptr %23, align 4
  %107 = load i32, ptr %12, align 4
  %108 = load i32, ptr %21, align 4
  %109 = add i32 %107, %108
  store i32 %109, ptr %24, align 4
  br label %110

110:                                              ; preds = %103, %102
  %111 = load i32, ptr %21, align 4
  %112 = icmp ult i32 %111, 12
  br i1 %112, label %116, label %113

113:                                              ; preds = %110
  %114 = load i32, ptr %21, align 4
  %115 = icmp ugt i32 %114, 29
  br i1 %115, label %116, label %141

116:                                              ; preds = %113, %110
  %117 = load ptr, ptr %10, align 8
  %118 = load ptr, ptr %9, align 8
  %119 = getelementptr inbounds nuw %struct._asn1_ctx_t, ptr %118, i32 0, i32 3
  %120 = load ptr, ptr %119, align 8
  %121 = load ptr, ptr %11, align 8
  %122 = load i32, ptr %22, align 4
  %123 = load i32, ptr %23, align 4
  %124 = load i32, ptr %21, align 4
  %125 = call ptr (ptr, ptr, ptr, ptr, i32, i32, ptr, ...) @proto_tree_add_expert_format(ptr noundef %117, ptr noundef %120, ptr noundef @ei_ber_error_length, ptr noundef %121, i32 noundef %122, i32 noundef %123, ptr noundef @.str.28, i32 noundef %124)
  store ptr %125, ptr %26, align 8
  %126 = load i8, ptr @decode_unexpected, align 1, !range !6, !noundef !7
  %127 = trunc i8 %126 to i1
  br i1 %127, label %128, label %139

128:                                              ; preds = %116
  call void @llvm.lifetime.start.p0(i64 8, ptr %29) #12
  %129 = load ptr, ptr %26, align 8
  %130 = load i32, ptr @ett_ber_unknown, align 4
  %131 = call ptr @proto_item_add_subtree(ptr noundef %129, i32 noundef %130)
  store ptr %131, ptr %29, align 8
  %132 = load ptr, ptr %9, align 8
  %133 = getelementptr inbounds nuw %struct._asn1_ctx_t, ptr %132, i32 0, i32 3
  %134 = load ptr, ptr %133, align 8
  %135 = load ptr, ptr %11, align 8
  %136 = load i32, ptr %12, align 4
  %137 = load ptr, ptr %29, align 8
  %138 = call i32 @dissect_unknown_ber(ptr noundef %134, ptr noundef %135, i32 noundef %136, ptr noundef %137)
  call void @llvm.lifetime.end.p0(i64 8, ptr %29) #12
  br label %139

139:                                              ; preds = %128, %116
  %140 = load i32, ptr %24, align 4
  store i32 %140, ptr %7, align 4
  store i32 1, ptr %28, align 4
  br label %194

141:                                              ; preds = %113
  %142 = load ptr, ptr %9, align 8
  %143 = getelementptr inbounds nuw %struct._asn1_ctx_t, ptr %142, i32 0, i32 3
  %144 = load ptr, ptr %143, align 8
  %145 = getelementptr inbounds nuw %struct._packet_info, ptr %144, i32 0, i32 51
  %146 = load ptr, ptr %145, align 8
  %147 = load ptr, ptr %11, align 8
  %148 = load i32, ptr %12, align 4
  %149 = load i32, ptr %21, align 4
  %150 = call ptr @tvb_get_string_enc(ptr noundef %146, ptr noundef %147, i32 noundef %148, i32 noundef %149, i32 noundef 0)
  store ptr %150, ptr %15, align 8
  %151 = load ptr, ptr %15, align 8
  %152 = call ptr @iso8601_to_nstime(ptr noundef %14, ptr noundef %151, i32 noundef 1)
  %153 = icmp ne ptr %152, null
  br i1 %153, label %179, label %154

154:                                              ; preds = %141
  %155 = load ptr, ptr %10, align 8
  %156 = load ptr, ptr %9, align 8
  %157 = getelementptr inbounds nuw %struct._asn1_ctx_t, ptr %156, i32 0, i32 3
  %158 = load ptr, ptr %157, align 8
  %159 = load ptr, ptr %11, align 8
  %160 = load i32, ptr %12, align 4
  %161 = load i32, ptr %21, align 4
  %162 = load ptr, ptr %15, align 8
  %163 = call ptr (ptr, ptr, ptr, ptr, i32, i32, ptr, ...) @proto_tree_add_expert_format(ptr noundef %155, ptr noundef %158, ptr noundef @ei_ber_invalid_format_generalized_time, ptr noundef %159, i32 noundef %160, i32 noundef %161, ptr noundef @.str.29, ptr noundef %162)
  store ptr %163, ptr %26, align 8
  %164 = load i8, ptr @decode_unexpected, align 1, !range !6, !noundef !7
  %165 = trunc i8 %164 to i1
  br i1 %165, label %166, label %177

166:                                              ; preds = %154
  call void @llvm.lifetime.start.p0(i64 8, ptr %30) #12
  %167 = load ptr, ptr %26, align 8
  %168 = load i32, ptr @ett_ber_unknown, align 4
  %169 = call ptr @proto_item_add_subtree(ptr noundef %167, i32 noundef %168)
  store ptr %169, ptr %30, align 8
  %170 = load ptr, ptr %9, align 8
  %171 = getelementptr inbounds nuw %struct._asn1_ctx_t, ptr %170, i32 0, i32 3
  %172 = load ptr, ptr %171, align 8
  %173 = load ptr, ptr %11, align 8
  %174 = load i32, ptr %12, align 4
  %175 = load ptr, ptr %30, align 8
  %176 = call i32 @dissect_unknown_ber(ptr noundef %172, ptr noundef %173, i32 noundef %174, ptr noundef %175)
  call void @llvm.lifetime.end.p0(i64 8, ptr %30) #12
  br label %177

177:                                              ; preds = %166, %154
  %178 = load i32, ptr %24, align 4
  store i32 %178, ptr %7, align 4
  store i32 1, ptr %28, align 4
  br label %194

179:                                              ; preds = %141
  %180 = load i32, ptr %13, align 4
  %181 = icmp sgt i32 %180, 0
  br i1 %181, label %182, label %189

182:                                              ; preds = %179
  %183 = load ptr, ptr %10, align 8
  %184 = load i32, ptr %13, align 4
  %185 = load ptr, ptr %11, align 8
  %186 = load i32, ptr %12, align 4
  %187 = load i32, ptr %21, align 4
  %188 = call ptr @proto_tree_add_time(ptr noundef %183, i32 noundef %184, ptr noundef %185, i32 noundef %186, i32 noundef %187, ptr noundef %14)
  br label %189

189:                                              ; preds = %182, %179
  %190 = load i32, ptr %21, align 4
  %191 = load i32, ptr %12, align 4
  %192 = add i32 %191, %190
  store i32 %192, ptr %12, align 4
  %193 = load i32, ptr %12, align 4
  store i32 %193, ptr %7, align 4
  store i32 1, ptr %28, align 4
  br label %194

194:                                              ; preds = %189, %177, %139, %100
  call void @llvm.lifetime.end.p0(i64 8, ptr %26) #12
  call void @llvm.lifetime.end.p0(i64 4, ptr %25) #12
  call void @llvm.lifetime.end.p0(i64 4, ptr %24) #12
  call void @llvm.lifetime.end.p0(i64 4, ptr %23) #12
  call void @llvm.lifetime.end.p0(i64 4, ptr %22) #12
  call void @llvm.lifetime.end.p0(i64 4, ptr %21) #12
  call void @llvm.lifetime.end.p0(i64 4, ptr %20) #12
  call void @llvm.lifetime.end.p0(i64 4, ptr %19) #12
  call void @llvm.lifetime.end.p0(i64 4, ptr %18) #12
  call void @llvm.lifetime.end.p0(i64 1, ptr %17) #12
  call void @llvm.lifetime.end.p0(i64 1, ptr %16) #12
  call void @llvm.lifetime.end.p0(i64 8, ptr %15) #12
  call void @llvm.lifetime.end.p0(i64 16, ptr %14) #12
  %195 = load i32, ptr %7, align 4
  ret i32 %195
}