; Function Attrs: null_pointer_is_valid sspstrong uwtable
define i32 @dissect_ber_GeneralizedTime(i1 noundef zeroext %0, ptr noundef readonly captures(none) %1, ptr noundef %2, ptr noundef %3, i32 noundef %4, i32 noundef %5) local_unnamed_addr #0 {
  %7 = alloca %struct.nstime_t, align 8
  %8 = alloca i8, align 1
  %9 = alloca i8, align 1
  %10 = alloca i32, align 4
  %11 = alloca i32, align 4
  call void @llvm.lifetime.start.p0(i64 16, ptr nonnull %7) #14
  call void @llvm.lifetime.start.p0(i64 1, ptr nonnull %8) #14
  call void @llvm.lifetime.start.p0(i64 1, ptr nonnull %9) #14
  call void @llvm.lifetime.start.p0(i64 4, ptr nonnull %10) #14
  call void @llvm.lifetime.start.p0(i64 4, ptr nonnull %11) #14
  br i1 %0, label %43, label %12

12:                                               ; preds = %6
  %13 = getelementptr inbounds nuw i8, ptr %1, i64 16
  %14 = call i32 @dissect_ber_identifier(ptr poison, ptr noundef %2, ptr noundef %3, i32 noundef %4, ptr noundef nonnull %8, ptr noundef nonnull %9, ptr noundef nonnull %10)
  %15 = call i32 @dissect_ber_length(ptr poison, ptr noundef %2, ptr noundef %3, i32 noundef %14, ptr noundef nonnull %11, ptr noundef null)
  %16 = sub i32 %15, %14
  %17 = load i32, ptr %11, align 4
  %18 = add i32 %17, %15
  %19 = load i8, ptr %8, align 1
  %20 = icmp ne i8 %19, 0
  %21 = load i32, ptr %10, align 4
  %22 = icmp ne i32 %21, 24
  %or.cond = select i1 %20, i1 true, i1 %22
  br i1 %or.cond, label %23, label %46

23:                                               ; preds = %12
  %24 = sub i32 %14, %4
  call void @tvb_ensure_bytes_exist(ptr noundef %3, i32 noundef %4, i32 noundef 2)
  %25 = load ptr, ptr %13, align 8
  %26 = load i8, ptr %8, align 1
  %27 = sext i8 %26 to i32
  %28 = call ptr @val_to_str_const(i32 noundef %27, ptr noundef nonnull @ber_class_codes, ptr noundef nonnull @.str.3)
  %29 = load i8, ptr %8, align 1
  %30 = sext i8 %29 to i32
  %31 = load i8, ptr %9, align 1, !range !8, !noundef !9
  %32 = trunc nuw i8 %31 to i1
  %33 = call ptr @tfs_get_string(i1 noundef zeroext %32, ptr noundef nonnull @tfs_constructed_primitive)
  %34 = load i32, ptr %10, align 4
  %35 = call ptr (ptr, ptr, ptr, ptr, i32, i32, ptr, ...) @proto_tree_add_expert_format(ptr noundef %2, ptr noundef %25, ptr noundef nonnull @ei_ber_expected_generalized_time, ptr noundef %3, i32 noundef %4, i32 noundef %24, ptr noundef nonnull @.str.27, ptr noundef %28, i32 noundef %30, ptr noundef %33, i32 noundef %34)
  %36 = load i8, ptr @decode_unexpected, align 1, !range !8, !noundef !9
  %37 = trunc nuw i8 %36 to i1
  br i1 %37, label %38, label %84

38:                                               ; preds = %23
  %39 = load i32, ptr @ett_ber_unknown, align 4
  %40 = call ptr @proto_item_add_subtree(ptr noundef %35, i32 noundef %39)
  %41 = load ptr, ptr %13, align 8
  %42 = call fastcc i32 @try_dissect_unknown_ber(ptr noundef %41, ptr noundef %3, i32 noundef %4, ptr noundef %40, i32 noundef 1)
  br label %84

43:                                               ; preds = %6
  %44 = tail call i32 @tvb_reported_length_remaining(ptr noundef %3, i32 noundef %4)
  store i32 %44, ptr %11, align 4
  %45 = add i32 %44, %4
  br label %46

46:                                               ; preds = %12, %43
  %47 = phi i32 [ %44, %43 ], [ %17, %12 ]
  %.072 = phi i32 [ %45, %43 ], [ %18, %12 ]
  %.071 = phi i32 [ 0, %43 ], [ %16, %12 ]
  %.070 = phi i32 [ 0, %43 ], [ %14, %12 ]
  %.069 = phi i32 [ %4, %43 ], [ %15, %12 ]
  %48 = add i32 %47, -30
  %or.cond3 = icmp ult i32 %48, -18
  %49 = getelementptr inbounds nuw i8, ptr %1, i64 16
  %50 = load ptr, ptr %49, align 8
  br i1 %or.cond3, label %51, label %60

51:                                               ; preds = %46
  %52 = call ptr (ptr, ptr, ptr, ptr, i32, i32, ptr, ...) @proto_tree_add_expert_format(ptr noundef %2, ptr noundef %50, ptr noundef nonnull @ei_ber_error_length, ptr noundef %3, i32 noundef %.070, i32 noundef %.071, ptr noundef nonnull @.str.28, i32 noundef %47)
  %53 = load i8, ptr @decode_unexpected, align 1, !range !8, !noundef !9
  %54 = trunc nuw i8 %53 to i1
  br i1 %54, label %55, label %84

55:                                               ; preds = %51
  %56 = load i32, ptr @ett_ber_unknown, align 4
  %57 = call ptr @proto_item_add_subtree(ptr noundef %52, i32 noundef %56)
  %58 = load ptr, ptr %49, align 8
  %59 = call fastcc i32 @try_dissect_unknown_ber(ptr noundef %58, ptr noundef %3, i32 noundef %.069, ptr noundef %57, i32 noundef 1)
  br label %84

60:                                               ; preds = %46
  %61 = getelementptr inbounds nuw i8, ptr %50, i64 408
  %62 = load ptr, ptr %61, align 8
  %63 = call ptr @tvb_get_string_enc(ptr noundef %62, ptr noundef %3, i32 noundef %.069, i32 noundef %47, i32 noundef 0)
  %64 = call ptr @iso8601_to_nstime(ptr noundef nonnull %7, ptr noundef %63, i32 noundef 1)
  %.not = icmp eq ptr %64, null
  br i1 %.not, label %65, label %76

65:                                               ; preds = %60
  %66 = load ptr, ptr %49, align 8
  %67 = load i32, ptr %11, align 4
  %68 = call ptr (ptr, ptr, ptr, ptr, i32, i32, ptr, ...) @proto_tree_add_expert_format(ptr noundef %2, ptr noundef %66, ptr noundef nonnull @ei_ber_invalid_format_generalized_time, ptr noundef %3, i32 noundef %.069, i32 noundef %67, ptr noundef nonnull @.str.29, ptr noundef %63)
  %69 = load i8, ptr @decode_unexpected, align 1, !range !8, !noundef !9
  %70 = trunc nuw i8 %69 to i1
  br i1 %70, label %71, label %84

71:                                               ; preds = %65
  %72 = load i32, ptr @ett_ber_unknown, align 4
  %73 = call ptr @proto_item_add_subtree(ptr noundef %68, i32 noundef %72)
  %74 = load ptr, ptr %49, align 8
  %75 = call fastcc i32 @try_dissect_unknown_ber(ptr noundef %74, ptr noundef %3, i32 noundef %.069, ptr noundef %73, i32 noundef 1)
  br label %84

76:                                               ; preds = %60
  %77 = icmp sgt i32 %5, 0
  br i1 %77, label %78, label %81

78:                                               ; preds = %76
  %79 = load i32, ptr %11, align 4
  %80 = call ptr @proto_tree_add_time(ptr noundef %2, i32 noundef %5, ptr noundef %3, i32 noundef %.069, i32 noundef %79, ptr noundef nonnull %7)
  br label %81

81:                                               ; preds = %78, %76
  %82 = load i32, ptr %11, align 4
  %83 = add i32 %82, %.069
  br label %84

84:                                               ; preds = %65, %71, %51, %55, %23, %38, %81
  %.0 = phi i32 [ %83, %81 ], [ %18, %38 ], [ %18, %23 ], [ %.072, %55 ], [ %.072, %51 ], [ %.072, %71 ], [ %.072, %65 ]
  call void @llvm.lifetime.end.p0(i64 4, ptr nonnull %11) #14
  call void @llvm.lifetime.end.p0(i64 4, ptr nonnull %10) #14
  call void @llvm.lifetime.end.p0(i64 1, ptr nonnull %9) #14
  call void @llvm.lifetime.end.p0(i64 1, ptr nonnull %8) #14
  call void @llvm.lifetime.end.p0(i64 16, ptr nonnull %7) #14
  ret i32 %.0
}